target datalayout = "e-m:e-p270:32:32-p271:32:32-p272:64:64-i64:64-i128:128-f80:128-n8:16:32:64-S128"
target triple = "x86_64-pc-linux-gnu"

; Function Attrs: mustprogress nounwind uwtable
define internal noundef ptr @_ZL16getTypeForFormatRN4llvm11LLVMContextERKNS_12fltSemanticsEb(ptr noundef nonnull align 8 dereferenceable(8) %0, ptr noundef nonnull align 1 %1, i1 noundef zeroext %2) #0 {
  %4 = alloca ptr, align 8
  %5 = alloca ptr, align 8
  %6 = alloca ptr, align 8
  %7 = alloca i8, align 1
  store ptr %0, ptr %5, align 8
  store ptr %1, ptr %6, align 8
  %8 = zext i1 %2 to i8
  store i8 %8, ptr %7, align 1
  %9 = load ptr, ptr %6, align 8
  %10 = call noundef nonnull align 1 ptr @_ZN4llvm11APFloatBase8IEEEhalfEv() #11
  %11 = icmp eq ptr %9, %10
  br i1 %11, label %12, label %21

12:                                               ; preds = %3
  %13 = load i8, ptr %7, align 1
  %14 = trunc i8 %13 to i1
  br i1 %14, label %15, label %18

15:                                               ; preds = %12
  %16 = load ptr, ptr %5, align 8
  %17 = call noundef ptr @_ZN4llvm4Type9getHalfTyERNS_11LLVMContextE(ptr noundef nonnull align 8 dereferenceable(8) %16)
  store ptr %17, ptr %4, align 8
  br label %64

18:                                               ; preds = %12
  %19 = load ptr, ptr %5, align 8
  %20 = call noundef ptr @_ZN4llvm4Type10getInt16TyERNS_11LLVMContextE(ptr noundef nonnull align 8 dereferenceable(8) %19)
  store ptr %20, ptr %4, align 8
  br label %64

21:                                               ; preds = %3
  %22 = load ptr, ptr %6, align 8
  %23 = call noundef nonnull align 1 ptr @_ZN4llvm11APFloatBase6BFloatEv() #11
  %24 = icmp eq ptr %22, %23
  br i1 %24, label %25, label %28

25:                                               ; preds = %21
  %26 = load ptr, ptr %5, align 8
  %27 = call noundef ptr @_ZN4llvm4Type11getBFloatTyERNS_11LLVMContextE(ptr noundef nonnull align 8 dereferenceable(8) %26)
  store ptr %27, ptr %4, align 8
  br label %64

28:                                               ; preds = %21
  %29 = load ptr, ptr %6, align 8
  %30 = call noundef nonnull align 1 ptr @_ZN4llvm11APFloatBase10IEEEsingleEv() #11
  %31 = icmp eq ptr %29, %30
  br i1 %31, label %32, label %35

32:                                               ; preds = %28
  %33 = load ptr, ptr %5, align 8
  %34 = call noundef ptr @_ZN4llvm4Type10getFloatTyERNS_11LLVMContextE(ptr noundef nonnull align 8 dereferenceable(8) %33)
  store ptr %34, ptr %4, align 8
  br label %64

35:                                               ; preds = %28
  %36 = load ptr, ptr %6, align 8
  %37 = call noundef nonnull align 1 ptr @_ZN4llvm11APFloatBase10IEEEdoubleEv() #11
  %38 = icmp eq ptr %36, %37
  br i1 %38, label %39, label %42

39:                                               ; preds = %35
  %40 = load ptr, ptr %5, align 8
  %41 = call noundef ptr @_ZN4llvm4Type11getDoubleTyERNS_11LLVMContextE(ptr noundef nonnull align 8 dereferenceable(8) %40)
  store ptr %41, ptr %4, align 8
  br label %64

42:                                               ; preds = %35
  %43 = load ptr, ptr %6, align 8
  %44 = call noundef nonnull align 1 ptr @_ZN4llvm11APFloatBase8IEEEquadEv() #11
  %45 = icmp eq ptr %43, %44
  br i1 %45, label %46, label %49

46:                                               ; preds = %42
  %47 = load ptr, ptr %5, align 8
  %48 = call noundef ptr @_ZN4llvm4Type10getFP128TyERNS_11LLVMContextE(ptr noundef nonnull align 8 dereferenceable(8) %47)
  store ptr %48, ptr %4, align 8
  br label %64

49:                                               ; preds = %42
  %50 = load ptr, ptr %6, align 8
  %51 = call noundef nonnull align 1 ptr @_ZN4llvm11APFloatBase15PPCDoubleDoubleEv() #11
  %52 = icmp eq ptr %50, %51
  br i1 %52, label %53, label %56

53:                                               ; preds = %49
  %54 = load ptr, ptr %5, align 8
  %55 = call noundef ptr @_ZN4llvm4Type14getPPC_FP128TyERNS_11LLVMContextE(ptr noundef nonnull align 8 dereferenceable(8) %54)
  store ptr %55, ptr %4, align 8
  br label %64

56:                                               ; preds = %49
  %57 = load ptr, ptr %6, align 8
  %58 = call noundef nonnull align 1 ptr @_ZN4llvm11APFloatBase17x87DoubleExtendedEv() #11
  %59 = icmp eq ptr %57, %58
  br i1 %59, label %60, label %63

60:                                               ; preds = %56
  %61 = load ptr, ptr %5, align 8
  %62 = call noundef ptr @_ZN4llvm4Type13getX86_FP80TyERNS_11LLVMContextE(ptr noundef nonnull align 8 dereferenceable(8) %61)
  store ptr %62, ptr %4, align 8
  br label %64

63:                                               ; preds = %56
  unreachable

64:                                               ; preds = %60, %53, %46, %39, %32, %25, %18, %15
  %65 = load ptr, ptr %4, align 8
  ret ptr %65
}