; Function Attrs: mustprogress nounwind uwtable
define internal fastcc noundef ptr @_ZL16getTypeForFormatRN4llvm11LLVMContextERKNS_12fltSemanticsEb(ptr noundef nonnull align 8 dereferenceable(8) %0, ptr noundef nonnull readnone align 1 %1, i1 noundef zeroext %2) unnamed_addr #0 {
  %4 = tail call noundef nonnull align 1 ptr @_ZN4llvm11APFloatBase8IEEEhalfEv() #18
  %5 = icmp eq ptr %1, %4
  br i1 %5, label %6, label %11

6:                                                ; preds = %3
  br i1 %2, label %7, label %9

7:                                                ; preds = %6
  %8 = tail call noundef ptr @_ZN4llvm4Type9getHalfTyERNS_11LLVMContextE(ptr noundef nonnull align 8 dereferenceable(8) %0) #15
  br label %40

9:                                                ; preds = %6
  %10 = tail call noundef ptr @_ZN4llvm4Type10getInt16TyERNS_11LLVMContextE(ptr noundef nonnull align 8 dereferenceable(8) %0) #15
  br label %40

11:                                               ; preds = %3
  %12 = tail call noundef nonnull align 1 ptr @_ZN4llvm11APFloatBase6BFloatEv() #18
  %13 = icmp eq ptr %1, %12
  br i1 %13, label %14, label %16

14:                                               ; preds = %11
  %15 = tail call noundef ptr @_ZN4llvm4Type11getBFloatTyERNS_11LLVMContextE(ptr noundef nonnull align 8 dereferenceable(8) %0) #15
  br label %40

16:                                               ; preds = %11
  %17 = tail call noundef nonnull align 1 ptr @_ZN4llvm11APFloatBase10IEEEsingleEv() #18
  %18 = icmp eq ptr %1, %17
  br i1 %18, label %19, label %21

19:                                               ; preds = %16
  %20 = tail call noundef ptr @_ZN4llvm4Type10getFloatTyERNS_11LLVMContextE(ptr noundef nonnull align 8 dereferenceable(8) %0) #15
  br label %40

21:                                               ; preds = %16
  %22 = tail call noundef nonnull align 1 ptr @_ZN4llvm11APFloatBase10IEEEdoubleEv() #18
  %23 = icmp eq ptr %1, %22
  br i1 %23, label %24, label %26

24:                                               ; preds = %21
  %25 = tail call noundef ptr @_ZN4llvm4Type11getDoubleTyERNS_11LLVMContextE(ptr noundef nonnull align 8 dereferenceable(8) %0) #15
  br label %40

26:                                               ; preds = %21
  %27 = tail call noundef nonnull align 1 ptr @_ZN4llvm11APFloatBase8IEEEquadEv() #18
  %28 = icmp eq ptr %1, %27
  br i1 %28, label %29, label %31

29:                                               ; preds = %26
  %30 = tail call noundef ptr @_ZN4llvm4Type10getFP128TyERNS_11LLVMContextE(ptr noundef nonnull align 8 dereferenceable(8) %0) #15
  br label %40

31:                                               ; preds = %26
  %32 = tail call noundef nonnull align 1 ptr @_ZN4llvm11APFloatBase15PPCDoubleDoubleEv() #18
  %33 = icmp eq ptr %1, %32
  br i1 %33, label %34, label %36

34:                                               ; preds = %31
  %35 = tail call noundef ptr @_ZN4llvm4Type14getPPC_FP128TyERNS_11LLVMContextE(ptr noundef nonnull align 8 dereferenceable(8) %0) #15
  br label %40

36:                                               ; preds = %31
  %37 = tail call noundef nonnull align 1 ptr @_ZN4llvm11APFloatBase17x87DoubleExtendedEv() #18
  %38 = icmp eq ptr %1, %37
  tail call void @llvm.assume(i1 %38)
  %39 = tail call noundef ptr @_ZN4llvm4Type13getX86_FP80TyERNS_11LLVMContextE(ptr noundef nonnull align 8 dereferenceable(8) %0) #15
  br label %40

40:                                               ; preds = %36, %34, %29, %24, %19, %14, %9, %7
  %.0 = phi ptr [ %8, %7 ], [ %10, %9 ], [ %15, %14 ], [ %20, %19 ], [ %25, %24 ], [ %30, %29 ], [ %35, %34 ], [ %39, %36 ]
  ret ptr %.0
}